target datalayout = "e-m:e-p270:32:32-p271:32:32-p272:64:64-i64:64-i128:128-f80:128-n8:16:32:64-S128"
target triple = "x86_64-pc-linux-gnu"

%struct.AVFilterContext = type { ptr, ptr, ptr, ptr, ptr, i32, ptr, ptr, i32, ptr, ptr, i32, i32, ptr, ptr, ptr, ptr, i32, ptr, i32, i32 }
%struct.ASoftClipContext = type { ptr, i32, i32, i64, double, double, double, [64 x %struct.Lowpass], [2 x ptr], ptr }
%struct.Lowpass = type { float, float, float, float, float, float, double, double, double, double, double, double }
%struct.ThreadData = type { ptr, ptr, i32, i32 }
%struct.AVChannelLayout = type { i32, i32, %union.anon.1, ptr }
%union.anon.1 = type { i64 }
%struct.AVRational = type { i32, i32 }
%struct.AVFrame = type { [8 x ptr], [8 x i32], ptr, i32, i32, i32, i32, i32, %struct.AVRational, i64, i64, %struct.AVRational, i32, ptr, i32, i32, [8 x ptr], ptr, i32, ptr, i32, i32, i32, i32, i32, i32, i32, i64, ptr, i32, ptr, ptr, i64, i64, i64, i64, ptr, %struct.AVChannelLayout, i64 }

; Function Attrs: nounwind uwtable
define internal i32 @filter_channels(ptr noundef %0, ptr noundef %1, i32 noundef %2, i32 noundef %3) #2 {
  %5 = alloca ptr, align 8
  %6 = alloca ptr, align 8
  %7 = alloca i32, align 4
  %8 = alloca i32, align 4
  %9 = alloca ptr, align 8
  %10 = alloca ptr, align 8
  %11 = alloca ptr, align 8
  %12 = alloca ptr, align 8
  %13 = alloca i32, align 4
  %14 = alloca i32, align 4
  %15 = alloca i32, align 4
  %16 = alloca i32, align 4
  store ptr %0, ptr %5, align 8, !tbaa !4
  store ptr %1, ptr %6, align 8, !tbaa !58
  store i32 %2, ptr %7, align 4, !tbaa !46
  store i32 %3, ptr %8, align 4, !tbaa !46
  call void @llvm.lifetime.start.p0(i64 8, ptr %9) #10
  %17 = load ptr, ptr %5, align 8, !tbaa !4
  %18 = getelementptr inbounds nuw %struct.AVFilterContext, ptr %17, i32 0, i32 9
  %19 = load ptr, ptr %18, align 8, !tbaa !9
  store ptr %19, ptr %9, align 8, !tbaa !22
  call void @llvm.lifetime.start.p0(i64 8, ptr %10) #10
  %20 = load ptr, ptr %6, align 8, !tbaa !58
  store ptr %20, ptr %10, align 8, !tbaa !59
  call void @llvm.lifetime.start.p0(i64 8, ptr %11) #10
  %21 = load ptr, ptr %10, align 8, !tbaa !59
  %22 = getelementptr inbounds nuw %struct.ThreadData, ptr %21, i32 0, i32 1
  %23 = load ptr, ptr %22, align 8, !tbaa !50
  store ptr %23, ptr %11, align 8, !tbaa !26
  call void @llvm.lifetime.start.p0(i64 8, ptr %12) #10
  %24 = load ptr, ptr %10, align 8, !tbaa !59
  %25 = getelementptr inbounds nuw %struct.ThreadData, ptr %24, i32 0, i32 0
  %26 = load ptr, ptr %25, align 8, !tbaa !48
  store ptr %26, ptr %12, align 8, !tbaa !26
  call void @llvm.lifetime.start.p0(i64 4, ptr %13) #10
  %27 = load ptr, ptr %10, align 8, !tbaa !59
  %28 = getelementptr inbounds nuw %struct.ThreadData, ptr %27, i32 0, i32 3
  %29 = load i32, ptr %28, align 4, !tbaa !52
  store i32 %29, ptr %13, align 4, !tbaa !46
  call void @llvm.lifetime.start.p0(i64 4, ptr %14) #10
  %30 = load ptr, ptr %10, align 8, !tbaa !59
  %31 = getelementptr inbounds nuw %struct.ThreadData, ptr %30, i32 0, i32 2
  %32 = load i32, ptr %31, align 8, !tbaa !51
  store i32 %32, ptr %14, align 4, !tbaa !46
  call void @llvm.lifetime.start.p0(i64 4, ptr %15) #10
  %33 = load i32, ptr %13, align 4, !tbaa !46
  %34 = load i32, ptr %7, align 4, !tbaa !46
  %35 = mul nsw i32 %33, %34
  %36 = load i32, ptr %8, align 4, !tbaa !46
  %37 = sdiv i32 %35, %36
  store i32 %37, ptr %15, align 4, !tbaa !46
  call void @llvm.lifetime.start.p0(i64 4, ptr %16) #10
  %38 = load i32, ptr %13, align 4, !tbaa !46
  %39 = load i32, ptr %7, align 4, !tbaa !46
  %40 = add nsw i32 %39, 1
  %41 = mul nsw i32 %38, %40
  %42 = load i32, ptr %8, align 4, !tbaa !46
  %43 = sdiv i32 %41, %42
  store i32 %43, ptr %16, align 4, !tbaa !46
  %44 = load ptr, ptr %9, align 8, !tbaa !22
  %45 = getelementptr inbounds nuw %struct.ASoftClipContext, ptr %44, i32 0, i32 9
  %46 = load ptr, ptr %45, align 8, !tbaa !54
  %47 = load ptr, ptr %9, align 8, !tbaa !22
  %48 = load ptr, ptr %11, align 8, !tbaa !26
  %49 = getelementptr inbounds nuw %struct.AVFrame, ptr %48, i32 0, i32 2
  %50 = load ptr, ptr %49, align 8, !tbaa !61
  %51 = load ptr, ptr %12, align 8, !tbaa !26
  %52 = getelementptr inbounds nuw %struct.AVFrame, ptr %51, i32 0, i32 2
  %53 = load ptr, ptr %52, align 8, !tbaa !61
  %54 = load i32, ptr %14, align 4, !tbaa !46
  %55 = load i32, ptr %13, align 4, !tbaa !46
  %56 = load i32, ptr %15, align 4, !tbaa !46
  %57 = load i32, ptr %16, align 4, !tbaa !46
  call void %46(ptr noundef %47, ptr noundef %50, ptr noundef %53, i32 noundef %54, i32 noundef %55, i32 noundef %56, i32 noundef %57)
  call void @llvm.lifetime.end.p0(i64 4, ptr %16) #10
  call void @llvm.lifetime.end.p0(i64 4, ptr %15) #10
  call void @llvm.lifetime.end.p0(i64 4, ptr %14) #10
  call void @llvm.lifetime.end.p0(i64 4, ptr %13) #10
  call void @llvm.lifetime.end.p0(i64 8, ptr %12) #10
  call void @llvm.lifetime.end.p0(i64 8, ptr %11) #10
  call void @llvm.lifetime.end.p0(i64 8, ptr %10) #10
  call void @llvm.lifetime.end.p0(i64 8, ptr %9) #10
  ret i32 0
}