; Function Attrs: nounwind uwtable
define internal noundef i32 @filter_channels(ptr noundef readonly captures(none) %0, ptr noundef readonly captures(none) %1, i32 noundef %2, i32 noundef %3) #2 {
  %5 = getelementptr inbounds nuw i8, ptr %0, i64 72
  %6 = load ptr, ptr %5, align 8, !tbaa !4
  %7 = getelementptr inbounds nuw i8, ptr %1, i64 8
  %8 = load ptr, ptr %7, align 8, !tbaa !46
  %9 = load ptr, ptr %1, align 8, !tbaa !44
  %10 = getelementptr inbounds nuw i8, ptr %1, i64 20
  %11 = load i32, ptr %10, align 4, !tbaa !48
  %12 = getelementptr inbounds nuw i8, ptr %1, i64 16
  %13 = load i32, ptr %12, align 8, !tbaa !47
  %14 = mul nsw i32 %11, %2
  %15 = sdiv i32 %14, %3
  %16 = add nsw i32 %2, 1
  %17 = mul nsw i32 %11, %16
  %18 = sdiv i32 %17, %3
  %19 = getelementptr inbounds nuw i8, ptr %6, i64 4672
  %20 = load ptr, ptr %19, align 8, !tbaa !50
  %21 = getelementptr inbounds nuw i8, ptr %8, i64 96
  %22 = load ptr, ptr %21, align 8, !tbaa !68
  %23 = getelementptr inbounds nuw i8, ptr %9, i64 96
  %24 = load ptr, ptr %23, align 8, !tbaa !68
  tail call void %20(ptr noundef %6, ptr noundef %22, ptr noundef %24, i32 noundef %13, i32 noundef %11, i32 noundef %15, i32 noundef %18) #10
  ret i32 0
}